; Function Attrs: mustprogress nofree norecurse nosync nounwind willreturn memory(argmem: read) uwtable
define dso_local i64 @GenerationGetChunkSpace(ptr noundef %0) local_unnamed_addr #8 {
  %2 = getelementptr inbounds i8, ptr %0, i64 -8
  %.val = load i64, ptr %2, align 8
  %3 = and i64 %.val, 16
  %.not = icmp eq i64 %3, 0
  br i1 %.not, label %10, label %4

4:                                                ; preds = %1
  %5 = getelementptr inbounds i8, ptr %0, i64 -16
  %6 = load ptr, ptr %5, align 8
  %7 = ptrtoint ptr %6 to i64
  %8 = ptrtoint ptr %0 to i64
  %9 = sub i64 %7, %8
  br label %13

10:                                               ; preds = %1
  %11 = lshr i64 %.val, 5
  %12 = and i64 %11, 1073741823
  br label %13

13:                                               ; preds = %4, %10
  %.0 = phi i64 [ %9, %4 ], [ %12, %10 ]
  %14 = add i64 %.0, 8
  ret i64 %14
}